target datalayout = "e-m:e-p270:32:32-p271:32:32-p272:64:64-i64:64-i128:128-f80:128-n8:16:32:64-S128"
target triple = "x86_64-pc-linux-gnu"

%struct._bitmap_info_t = type { i8, i16, ptr }

@ett_zvt_bitmap = internal global i32 0, align 4
@hf_zvt_bmp = internal global i32 0, align 4
@bitmap_table = internal global ptr null, align 8
@.str.181 = private unnamed_addr constant [7 x i8] c"Bitmap\00", align 1
@.str.182 = private unnamed_addr constant [5 x i8] c": %s\00", align 1
@.str.183 = private unnamed_addr constant [8 x i8] c"unknown\00", align 1

; Function Attrs: null_pointer_is_valid sspstrong uwtable
define internal i32 @dissect_zvt_bitmap(ptr noundef %0, i32 noundef %1, ptr noundef %2, ptr noundef %3) #0 {
  %5 = alloca i32, align 4
  %6 = alloca ptr, align 8
  %7 = alloca i32, align 4
  %8 = alloca ptr, align 8
  %9 = alloca ptr, align 8
  %10 = alloca i32, align 4
  %11 = alloca i8, align 1
  %12 = alloca ptr, align 8
  %13 = alloca ptr, align 8
  %14 = alloca ptr, align 8
  %15 = alloca i32, align 4
  %16 = alloca i32, align 4
  store ptr %0, ptr %6, align 8
  store i32 %1, ptr %7, align 4
  store ptr %2, ptr %8, align 8
  store ptr %3, ptr %9, align 8
  call void @llvm.lifetime.start.p0(i64 4, ptr %10) #7
  call void @llvm.lifetime.start.p0(i64 1, ptr %11) #7
  call void @llvm.lifetime.start.p0(i64 8, ptr %12) #7
  call void @llvm.lifetime.start.p0(i64 8, ptr %13) #7
  call void @llvm.lifetime.start.p0(i64 8, ptr %14) #7
  call void @llvm.lifetime.start.p0(i64 4, ptr %15) #7
  %17 = load i32, ptr %7, align 4
  store i32 %17, ptr %10, align 4
  %18 = load ptr, ptr %6, align 8
  %19 = load i32, ptr %7, align 4
  %20 = call zeroext i8 @tvb_get_uint8(ptr noundef %18, i32 noundef %19)
  store i8 %20, ptr %11, align 1
  %21 = load i8, ptr %11, align 1
  %22 = zext i8 %21 to i32
  %23 = call ptr @try_val_to_str(i32 noundef %22, ptr noundef @bitmap)
  %24 = icmp eq ptr %23, null
  br i1 %24, label %25, label %26

25:                                               ; preds = %4
  store i32 -1, ptr %5, align 4
  store i32 1, ptr %16, align 4
  br label %95

26:                                               ; preds = %4
  %27 = load ptr, ptr %9, align 8
  %28 = load ptr, ptr %6, align 8
  %29 = load i32, ptr %7, align 4
  %30 = load i32, ptr @ett_zvt_bitmap, align 4
  %31 = call ptr @proto_tree_add_subtree(ptr noundef %27, ptr noundef %28, i32 noundef %29, i32 noundef -1, i32 noundef %30, ptr noundef %12, ptr noundef @.str.181)
  store ptr %31, ptr %13, align 8
  %32 = load ptr, ptr %13, align 8
  %33 = load i32, ptr @hf_zvt_bmp, align 4
  %34 = load ptr, ptr %6, align 8
  %35 = load i32, ptr %7, align 4
  %36 = call ptr @proto_tree_add_item(ptr noundef %32, i32 noundef %33, ptr noundef %34, i32 noundef %35, i32 noundef 1, i32 noundef 0)
  %37 = load ptr, ptr %12, align 8
  %38 = load i8, ptr %11, align 1
  %39 = zext i8 %38 to i32
  %40 = call ptr @val_to_str_const(i32 noundef %39, ptr noundef @bitmap, ptr noundef @.str.183)
  call void (ptr, ptr, ...) @proto_item_append_text(ptr noundef %37, ptr noundef @.str.182, ptr noundef %40)
  %41 = load i32, ptr %7, align 4
  %42 = add i32 %41, 1
  store i32 %42, ptr %7, align 4
  %43 = load ptr, ptr @bitmap_table, align 8
  %44 = load i8, ptr %11, align 1
  %45 = zext i8 %44 to i32
  %46 = zext i32 %45 to i64
  %47 = inttoptr i64 %46 to ptr
  %48 = call ptr @g_hash_table_lookup(ptr noundef %43, ptr noundef %47)
  store ptr %48, ptr %14, align 8
  %49 = load ptr, ptr %14, align 8
  %50 = icmp ne ptr %49, null
  br i1 %50, label %51, label %87

51:                                               ; preds = %26
  %52 = load ptr, ptr %14, align 8
  %53 = getelementptr inbounds nuw %struct._bitmap_info_t, ptr %52, i32 0, i32 2
  %54 = load ptr, ptr %53, align 8
  %55 = icmp ne ptr %54, null
  br i1 %55, label %56, label %72

56:                                               ; preds = %51
  %57 = load ptr, ptr %14, align 8
  %58 = getelementptr inbounds nuw %struct._bitmap_info_t, ptr %57, i32 0, i32 2
  %59 = load ptr, ptr %58, align 8
  %60 = load ptr, ptr %6, align 8
  %61 = load i32, ptr %7, align 4
  %62 = load ptr, ptr %8, align 8
  %63 = load ptr, ptr %13, align 8
  %64 = call i32 %59(ptr noundef %60, i32 noundef %61, ptr noundef %62, ptr noundef %63)
  store i32 %64, ptr %15, align 4
  %65 = load i32, ptr %15, align 4
  %66 = icmp sge i32 %65, 0
  br i1 %66, label %67, label %71

67:                                               ; preds = %56
  %68 = load i32, ptr %15, align 4
  %69 = load i32, ptr %7, align 4
  %70 = add i32 %69, %68
  store i32 %70, ptr %7, align 4
  br label %71

71:                                               ; preds = %67, %56
  br label %86

72:                                               ; preds = %51
  %73 = load ptr, ptr %14, align 8
  %74 = getelementptr inbounds nuw %struct._bitmap_info_t, ptr %73, i32 0, i32 1
  %75 = load i16, ptr %74, align 2
  %76 = zext i16 %75 to i32
  %77 = icmp ne i32 %76, 0
  br i1 %77, label %78, label %85

78:                                               ; preds = %72
  %79 = load ptr, ptr %14, align 8
  %80 = getelementptr inbounds nuw %struct._bitmap_info_t, ptr %79, i32 0, i32 1
  %81 = load i16, ptr %80, align 2
  %82 = zext i16 %81 to i32
  %83 = load i32, ptr %7, align 4
  %84 = add i32 %83, %82
  store i32 %84, ptr %7, align 4
  br label %85

85:                                               ; preds = %78, %72
  br label %86

86:                                               ; preds = %85, %71
  br label %87

87:                                               ; preds = %86, %26
  %88 = load ptr, ptr %12, align 8
  %89 = load i32, ptr %7, align 4
  %90 = load i32, ptr %10, align 4
  %91 = sub i32 %89, %90
  call void @proto_item_set_len(ptr noundef %88, i32 noundef %91)
  %92 = load i32, ptr %7, align 4
  %93 = load i32, ptr %10, align 4
  %94 = sub i32 %92, %93
  store i32 %94, ptr %5, align 4
  store i32 1, ptr %16, align 4
  br label %95

95:                                               ; preds = %87, %25
  call void @llvm.lifetime.end.p0(i64 4, ptr %15) #7
  call void @llvm.lifetime.end.p0(i64 8, ptr %14) #7
  call void @llvm.lifetime.end.p0(i64 8, ptr %13) #7
  call void @llvm.lifetime.end.p0(i64 8, ptr %12) #7
  call void @llvm.lifetime.end.p0(i64 1, ptr %11) #7
  call void @llvm.lifetime.end.p0(i64 4, ptr %10) #7
  %96 = load i32, ptr %5, align 4
  ret i32 %96
}

; Function Attrs: null_pointer_is_valid sspstrong uwtable
define internal void @dissect_zvt_bitmap_seq(ptr noundef %0, i32 noundef %1, i16 noundef zeroext %2, ptr noundef %3, ptr noundef %4, ptr noundef %5) #0 {
  %7 = alloca ptr, align 8
  %8 = alloca i32, align 4
  %9 = alloca i16, align 2
  %10 = alloca ptr, align 8
  %11 = alloca ptr, align 8
  %12 = alloca ptr, align 8
  %13 = alloca i32, align 4
  %14 = alloca i32, align 4
  store ptr %0, ptr %7, align 8
  store i32 %1, ptr %8, align 4
  store i16 %2, ptr %9, align 2
  store ptr %3, ptr %10, align 8
  store ptr %4, ptr %11, align 8
  store ptr %5, ptr %12, align 8
  call void @llvm.lifetime.start.p0(i64 4, ptr %13) #7
  call void @llvm.lifetime.start.p0(i64 4, ptr %14) #7
  %15 = load i32, ptr %8, align 4
  store i32 %15, ptr %13, align 4
  br label %16

16:                                               ; preds = %32, %6
  %17 = load i32, ptr %8, align 4
  %18 = load i32, ptr %13, align 4
  %19 = sub i32 %17, %18
  %20 = load i16, ptr %9, align 2
  %21 = zext i16 %20 to i32
  %22 = icmp slt i32 %19, %21
  br i1 %22, label %23, label %36

23:                                               ; preds = %16
  %24 = load ptr, ptr %7, align 8
  %25 = load i32, ptr %8, align 4
  %26 = load ptr, ptr %10, align 8
  %27 = load ptr, ptr %11, align 8
  %28 = call i32 @dissect_zvt_bitmap(ptr noundef %24, i32 noundef %25, ptr noundef %26, ptr noundef %27)
  store i32 %28, ptr %14, align 4
  %29 = load i32, ptr %14, align 4
  %30 = icmp sle i32 %29, 0
  br i1 %30, label %31, label %32

31:                                               ; preds = %23
  br label %36

32:                                               ; preds = %23
  %33 = load i32, ptr %14, align 4
  %34 = load i32, ptr %8, align 4
  %35 = add i32 %34, %33
  store i32 %35, ptr %8, align 4
  br label %16, !llvm.loop !12

36:                                               ; preds = %31, %16
  call void @llvm.lifetime.end.p0(i64 4, ptr %14) #7
  call void @llvm.lifetime.end.p0(i64 4, ptr %13) #7
  ret void
}