; Function Attrs: null_pointer_is_valid sspstrong uwtable
define internal void @dissect_zvt_bitmap_seq(ptr noundef %0, i32 noundef %1, i16 noundef zeroext %2, ptr noundef %3, ptr noundef %4, ptr readnone captures(none) %5) #0 {
  %7 = alloca ptr, align 8
  %8 = zext i16 %2 to i32
  br label %9

9:                                                ; preds = %dissect_zvt_bitmap.exit, %6
  %.0 = phi i32 [ %1, %6 ], [ %.030.i, %dissect_zvt_bitmap.exit ]
  %10 = sub i32 %.0, %1
  %11 = icmp slt i32 %10, %8
  br i1 %11, label %12, label %.loopexit

12:                                               ; preds = %9
  call void @llvm.lifetime.start.p0(i64 8, ptr nonnull %7) #7
  %13 = call zeroext i8 @tvb_get_uint8(ptr noundef %0, i32 noundef %.0)
  %14 = zext i8 %13 to i32
  %15 = call ptr @try_val_to_str(i32 noundef %14, ptr noundef nonnull @bitmap)
  %16 = icmp eq ptr %15, null
  br i1 %16, label %dissect_zvt_bitmap.exit.thread, label %17

dissect_zvt_bitmap.exit.thread:                   ; preds = %12
  call void @llvm.lifetime.end.p0(i64 8, ptr nonnull %7) #7
  br label %.loopexit

17:                                               ; preds = %12
  %18 = load i32, ptr @ett_zvt_bitmap, align 4
  %19 = call ptr @proto_tree_add_subtree(ptr noundef %4, ptr noundef %0, i32 noundef %.0, i32 noundef -1, i32 noundef %18, ptr noundef nonnull %7, ptr noundef nonnull @.str.181)
  %20 = load i32, ptr @hf_zvt_bmp, align 4
  %21 = call ptr @proto_tree_add_item(ptr noundef %19, i32 noundef %20, ptr noundef %0, i32 noundef %.0, i32 noundef 1, i32 noundef 0)
  %22 = load ptr, ptr %7, align 8
  %23 = call ptr @val_to_str_const(i32 noundef %14, ptr noundef nonnull @bitmap, ptr noundef nonnull @.str.183)
  call void (ptr, ptr, ...) @proto_item_append_text(ptr noundef %22, ptr noundef nonnull @.str.182, ptr noundef %23)
  %24 = add i32 %.0, 1
  %25 = load ptr, ptr @bitmap_table, align 8
  %26 = zext i8 %13 to i64
  %27 = inttoptr i64 %26 to ptr
  %28 = call ptr @g_hash_table_lookup(ptr noundef %25, ptr noundef %27)
  %.not.i = icmp eq ptr %28, null
  br i1 %.not.i, label %dissect_zvt_bitmap.exit, label %29

29:                                               ; preds = %17
  %30 = getelementptr inbounds nuw i8, ptr %28, i64 8
  %31 = load ptr, ptr %30, align 8
  %.not35.i = icmp eq ptr %31, null
  br i1 %.not35.i, label %35, label %32

32:                                               ; preds = %29
  %33 = call i32 %31(ptr noundef %0, i32 noundef %24, ptr noundef %3, ptr noundef %19)
  %34 = call i32 @llvm.smax.i32(i32 %33, i32 0)
  %spec.select.i = add i32 %34, %24
  br label %dissect_zvt_bitmap.exit

35:                                               ; preds = %29
  %36 = getelementptr inbounds nuw i8, ptr %28, i64 2
  %37 = load i16, ptr %36, align 2
  %.not36.i = icmp eq i16 %37, 0
  br i1 %.not36.i, label %dissect_zvt_bitmap.exit, label %38

38:                                               ; preds = %35
  %39 = zext i16 %37 to i32
  %40 = add i32 %24, %39
  br label %dissect_zvt_bitmap.exit

dissect_zvt_bitmap.exit:                          ; preds = %17, %32, %35, %38
  %.030.i = phi i32 [ %40, %38 ], [ %24, %35 ], [ %24, %17 ], [ %spec.select.i, %32 ]
  %41 = load ptr, ptr %7, align 8
  %42 = sub i32 %.030.i, %.0
  call void @proto_item_set_len(ptr noundef %41, i32 noundef %42)
  call void @llvm.lifetime.end.p0(i64 8, ptr nonnull %7) #7
  %43 = icmp slt i32 %42, 1
  br i1 %43, label %.loopexit, label %9, !llvm.loop !10

.loopexit:                                        ; preds = %dissect_zvt_bitmap.exit, %9, %dissect_zvt_bitmap.exit.thread
  ret void
}